; Function Attrs: uwtable
define noundef i32 @_ZThn16_NK12FilterCreate8getClassEPK7QAction(ptr noundef %0, ptr noundef %1) unnamed_addr #12 align 2 {
  %3 = load ptr, ptr %0, align 8
  %4 = getelementptr inbounds i8, ptr %3, i64 144
  %5 = load ptr, ptr %4, align 8
  %6 = tail call noundef i32 %5(ptr noundef nonnull align 8 dereferenceable(64) %0, ptr noundef %1)
  %switch.i = icmp ult i32 %6, 12
  %..i = select i1 %switch.i, i32 64, i32 0
  ret i32 %..i
}